; ModuleID = 'source-C-CXX/46/1715.c'
source_filename = "source-C-CXX/46/1715.c"
target datalayout = "e-m:e-p270:32:32-p271:32:32-p272:64:64-i64:64-f80:128-n8:16:32:64-S128"
target triple = "x86_64-pc-linux-gnu"

@.str = private unnamed_addr constant [3 x i8] c"%d\00", align 1
@.str.1 = private unnamed_addr constant [4 x i8] c" %d\00", align 1

; Function Attrs: nofree nounwind sspstrong uwtable
define dso_local i32 @main() local_unnamed_addr #0 {
  %1 = alloca [100 x i32], align 16
  %2 = alloca i32, align 4
  %3 = bitcast [100 x i32]* %1 to i8*
  call void @llvm.lifetime.start.p0i8(i64 400, i8* nonnull %3) #3
  %4 = bitcast i32* %2 to i8*
  call void @llvm.lifetime.start.p0i8(i64 4, i8* nonnull %4) #3
  %5 = getelementptr inbounds [100 x i32], [100 x i32]* %1, i64 0, i64 0
  %6 = call i32 (i8*, ...) @__isoc99_scanf(i8* getelementptr inbounds ([3 x i8], [3 x i8]* @.str, i64 0, i64 0), i32* nonnull %2)
  %7 = load i32, i32* %2, align 4, !tbaa !5
  %8 = icmp slt i32 %7, 1
  br i1 %8, label %17, label %9

9:                                                ; preds = %0, %9
  %10 = phi i32* [ %13, %9 ], [ %5, %0 ]
  %11 = phi i32 [ %14, %9 ], [ 1, %0 ]
  %12 = call i32 (i8*, ...) @__isoc99_scanf(i8* getelementptr inbounds ([3 x i8], [3 x i8]* @.str, i64 0, i64 0), i32* nonnull %10)
  %13 = getelementptr inbounds i32, i32* %10, i64 1
  %14 = add nuw nsw i32 %11, 1
  %15 = load i32, i32* %2, align 4, !tbaa !5
  %16 = icmp slt i32 %11, %15
  br i1 %16, label %9, label %17, !llvm.loop !9

17:                                               ; preds = %9, %0
  %18 = phi i32 [ %7, %0 ], [ %15, %9 ]
  %19 = sext i32 %18 to i64
  %20 = getelementptr inbounds [100 x i32], [100 x i32]* %1, i64 0, i64 %19
  %21 = getelementptr inbounds i32, i32* %20, i64 -1
  %22 = icmp ult i32* %21, %5
  br i1 %22, label %34, label %23

23:                                               ; preds = %17
  %24 = load i32, i32* %21, align 4, !tbaa !5
  %25 = call i32 (i8*, ...) @printf(i8* nonnull dereferenceable(1) getelementptr inbounds ([3 x i8], [3 x i8]* @.str, i64 0, i64 0), i32 %24)
  %26 = getelementptr inbounds i32, i32* %20, i64 -2
  %27 = icmp ult i32* %26, %5
  br i1 %27, label %34, label %28

28:                                               ; preds = %23, %28
  %29 = phi i32* [ %32, %28 ], [ %26, %23 ]
  %30 = load i32, i32* %29, align 4, !tbaa !5
  %31 = call i32 (i8*, ...) @printf(i8* nonnull dereferenceable(1) getelementptr inbounds ([4 x i8], [4 x i8]* @.str.1, i64 0, i64 0), i32 %30)
  %32 = getelementptr inbounds i32, i32* %29, i64 -1
  %33 = icmp ult i32* %32, %5
  br i1 %33, label %34, label %28, !llvm.loop !11

34:                                               ; preds = %28, %23, %17
  call void @llvm.lifetime.end.p0i8(i64 4, i8* nonnull %4) #3
  call void @llvm.lifetime.end.p0i8(i64 400, i8* nonnull %3) #3
  ret i32 0
}

; Function Attrs: argmemonly mustprogress nofree nosync nounwind willreturn
declare void @llvm.lifetime.start.p0i8(i64 immarg, i8* nocapture) #1

; Function Attrs: nofree nounwind
declare noundef i32 @__isoc99_scanf(i8* nocapture noundef readonly, ...) local_unnamed_addr #2

; Function Attrs: nofree nounwind
declare noundef i32 @printf(i8* nocapture noundef readonly, ...) local_unnamed_addr #2

; Function Attrs: argmemonly mustprogress nofree nosync nounwind willreturn
declare void @llvm.lifetime.end.p0i8(i64 immarg, i8* nocapture) #1


!llvm.module.flags = !{!0, !1, !2, !3}
!llvm.ident = !{!4}

!0 = !{i32 1, !"wchar_size", i32 4}
!1 = !{i32 7, !"PIC Level", i32 2}
!2 = !{i32 7, !"PIE Level", i32 2}
!3 = !{i32 7, !"uwtable", i32 1}
!4 = !{!"clang version 13.0.0"}
!5 = !{!6, !6, i64 0}
!6 = !{!"int", !7, i64 0}
!7 = !{!"omnipotent char", !8, i64 0}
!8 = !{!"Simple C/C++ TBAA"}
!9 = distinct !{!9, !10}
!10 = !{!"llvm.loop.mustprogress"}
!11 = distinct !{!11, !10, !12}
!12 = !{!"llvm.loop.peeled.count", i32 1}
